; Function Attrs: mustprogress nofree norecurse nosync nounwind willreturn memory(read, inaccessiblemem: none) uwtable
define hidden noundef zeroext i1 @_ZN8PhaseCFG21is_dominating_controlEP4NodeS1_(ptr nocapture noundef nonnull readnone align 8 dereferenceable(160) %0, ptr noundef readnone %1, ptr nocapture noundef readonly %2) local_unnamed_addr #2 align 2 {
  br label %4

4:                                                ; preds = %_ZNK4Node14is_block_startEv.exit, %3
  %.pn = phi ptr [ %2, %3 ], [ %.0, %_ZNK4Node14is_block_startEv.exit ]
  %.0.in.in = getelementptr inbounds i8, ptr %.pn, i64 8
  %.0.in = load ptr, ptr %.0.in.in, align 8
  %.0 = load ptr, ptr %.0.in, align 8
  %5 = getelementptr inbounds i8, ptr %.0, i64 44
  %6 = load i32, ptr %5, align 4
  %7 = and i32 %6, 63
  %8 = icmp eq i32 %7, 32
  br i1 %8, label %9, label %14

9:                                                ; preds = %4
  %10 = getelementptr inbounds i8, ptr %.0, i64 8
  %11 = load ptr, ptr %10, align 8
  %12 = load ptr, ptr %11, align 8
  %13 = icmp eq ptr %12, %.0
  br label %_ZNK4Node14is_block_startEv.exit

14:                                               ; preds = %4
  %15 = and i32 %6, 15
  %16 = icmp eq i32 %15, 9
  br label %_ZNK4Node14is_block_startEv.exit

_ZNK4Node14is_block_startEv.exit:                 ; preds = %9, %14
  %.0.i = phi i1 [ %13, %9 ], [ %16, %14 ]
  %17 = icmp eq ptr %.0, %1
  %or.cond = or i1 %17, %.0.i
  br i1 %or.cond, label %18, label %4, !llvm.loop !11

18:                                               ; preds = %_ZNK4Node14is_block_startEv.exit
  %.06 = xor i1 %.0.i, true
  ret i1 %.06
}